; ModuleID = '57/1475.c'
source_filename = "57/1475.c"
target datalayout = "e-m:e-p270:32:32-p271:32:32-p272:64:64-i64:64-f80:128-n8:16:32:64-S128"
target triple = "x86_64-pc-linux-gnu"

@__const.main.a = private unnamed_addr constant [2 x i8] c"er", align 1
@__const.main.b = private unnamed_addr constant [2 x i8] c"ly", align 1
@__const.main.c = private unnamed_addr constant [3 x i8] c"ing", align 1
@.str = private unnamed_addr constant [3 x i8] c"%d\00", align 1
@.str.1 = private unnamed_addr constant [3 x i8] c"%s\00", align 1
@.str.2 = private unnamed_addr constant [3 x i8] c"%c\00", align 1
@.str.3 = private unnamed_addr constant [2 x i8] c"\0A\00", align 1

; Function Attrs: noinline nounwind uwtable
define dso_local i32 @main() #0 {
  %1 = alloca i32, align 4
  %2 = alloca [2 x i8], align 1
  %3 = alloca [2 x i8], align 1
  %4 = alloca [3 x i8], align 1
  %5 = alloca [20 x i8], align 16
  %6 = alloca i32, align 4
  %7 = alloca i32, align 4
  %8 = alloca i32, align 4
  %9 = alloca i32, align 4
  store i32 0, i32* %1, align 4
  %10 = bitcast [2 x i8]* %2 to i8*
  call void @llvm.memcpy.p0i8.p0i8.i64(i8* align 1 %10, i8* align 1 getelementptr inbounds ([2 x i8], [2 x i8]* @__const.main.a, i32 0, i32 0), i64 2, i1 false)
  %11 = bitcast [2 x i8]* %3 to i8*
  call void @llvm.memcpy.p0i8.p0i8.i64(i8* align 1 %11, i8* align 1 getelementptr inbounds ([2 x i8], [2 x i8]* @__const.main.b, i32 0, i32 0), i64 2, i1 false)
  %12 = bitcast [3 x i8]* %4 to i8*
  call void @llvm.memcpy.p0i8.p0i8.i64(i8* align 1 %12, i8* align 1 getelementptr inbounds ([3 x i8], [3 x i8]* @__const.main.c, i32 0, i32 0), i64 3, i1 false)
  %13 = call i32 (i8*, ...) @__isoc99_scanf(i8* getelementptr inbounds ([3 x i8], [3 x i8]* @.str, i64 0, i64 0), i32* %6)
  store i32 0, i32* %7, align 4
  br label %14

14:                                               ; preds = %136, %0
  %15 = load i32, i32* %7, align 4
  %16 = load i32, i32* %6, align 4
  %17 = icmp slt i32 %15, %16
  br i1 %17, label %18, label %139

18:                                               ; preds = %14
  %19 = getelementptr inbounds [20 x i8], [20 x i8]* %5, i64 0, i64 0
  %20 = call i32 (i8*, ...) @__isoc99_scanf(i8* getelementptr inbounds ([3 x i8], [3 x i8]* @.str.1, i64 0, i64 0), i8* %19)
  %21 = getelementptr inbounds [20 x i8], [20 x i8]* %5, i64 0, i64 0
  %22 = call i64 @strlen(i8* %21) #4
  %23 = trunc i64 %22 to i32
  store i32 %23, i32* %9, align 4
  %24 = load i32, i32* %9, align 4
  %25 = sub nsw i32 %24, 2
  %26 = sext i32 %25 to i64
  %27 = getelementptr inbounds [20 x i8], [20 x i8]* %5, i64 0, i64 %26
  %28 = load i8, i8* %27, align 1
  %29 = sext i8 %28 to i32
  %30 = getelementptr inbounds [2 x i8], [2 x i8]* %2, i64 0, i64 0
  %31 = load i8, i8* %30, align 1
  %32 = sext i8 %31 to i32
  %33 = icmp eq i32 %29, %32
  br i1 %33, label %34, label %45

34:                                               ; preds = %18
  %35 = load i32, i32* %9, align 4
  %36 = sub nsw i32 %35, 1
  %37 = sext i32 %36 to i64
  %38 = getelementptr inbounds [20 x i8], [20 x i8]* %5, i64 0, i64 %37
  %39 = load i8, i8* %38, align 1
  %40 = sext i8 %39 to i32
  %41 = getelementptr inbounds [2 x i8], [2 x i8]* %2, i64 0, i64 1
  %42 = load i8, i8* %41, align 1
  %43 = sext i8 %42 to i32
  %44 = icmp eq i32 %40, %43
  br i1 %44, label %67, label %45

45:                                               ; preds = %34, %18
  %46 = load i32, i32* %9, align 4
  %47 = sub nsw i32 %46, 2
  %48 = sext i32 %47 to i64
  %49 = getelementptr inbounds [20 x i8], [20 x i8]* %5, i64 0, i64 %48
  %50 = load i8, i8* %49, align 1
  %51 = sext i8 %50 to i32
  %52 = getelementptr inbounds [2 x i8], [2 x i8]* %3, i64 0, i64 0
  %53 = load i8, i8* %52, align 1
  %54 = sext i8 %53 to i32
  %55 = icmp eq i32 %51, %54
  br i1 %55, label %56, label %84

56:                                               ; preds = %45
  %57 = load i32, i32* %9, align 4
  %58 = sub nsw i32 %57, 1
  %59 = sext i32 %58 to i64
  %60 = getelementptr inbounds [20 x i8], [20 x i8]* %5, i64 0, i64 %59
  %61 = load i8, i8* %60, align 1
  %62 = sext i8 %61 to i32
  %63 = getelementptr inbounds [2 x i8], [2 x i8]* %3, i64 0, i64 1
  %64 = load i8, i8* %63, align 1
  %65 = sext i8 %64 to i32
  %66 = icmp eq i32 %62, %65
  br i1 %66, label %67, label %84

67:                                               ; preds = %56, %34
  store i32 0, i32* %8, align 4
  br label %68

68:                                               ; preds = %80, %67
  %69 = load i32, i32* %8, align 4
  %70 = load i32, i32* %9, align 4
  %71 = sub nsw i32 %70, 2
  %72 = icmp slt i32 %69, %71
  br i1 %72, label %73, label %83

73:                                               ; preds = %68
  %74 = load i32, i32* %8, align 4
  %75 = sext i32 %74 to i64
  %76 = getelementptr inbounds [20 x i8], [20 x i8]* %5, i64 0, i64 %75
  %77 = load i8, i8* %76, align 1
  %78 = sext i8 %77 to i32
  %79 = call i32 (i8*, ...) @printf(i8* getelementptr inbounds ([3 x i8], [3 x i8]* @.str.2, i64 0, i64 0), i32 %78)
  br label %80

80:                                               ; preds = %73
  %81 = load i32, i32* %8, align 4
  %82 = add nsw i32 %81, 1
  store i32 %82, i32* %8, align 4
  br label %68

83:                                               ; preds = %68
  br label %84

84:                                               ; preds = %83, %56, %45
  %85 = load i32, i32* %9, align 4
  %86 = sub nsw i32 %85, 3
  %87 = sext i32 %86 to i64
  %88 = getelementptr inbounds [20 x i8], [20 x i8]* %5, i64 0, i64 %87
  %89 = load i8, i8* %88, align 1
  %90 = sext i8 %89 to i32
  %91 = getelementptr inbounds [3 x i8], [3 x i8]* %4, i64 0, i64 0
  %92 = load i8, i8* %91, align 1
  %93 = sext i8 %92 to i32
  %94 = icmp eq i32 %90, %93
  br i1 %94, label %95, label %134

95:                                               ; preds = %84
  %96 = load i32, i32* %9, align 4
  %97 = sub nsw i32 %96, 2
  %98 = sext i32 %97 to i64
  %99 = getelementptr inbounds [20 x i8], [20 x i8]* %5, i64 0, i64 %98
  %100 = load i8, i8* %99, align 1
  %101 = sext i8 %100 to i32
  %102 = getelementptr inbounds [3 x i8], [3 x i8]* %4, i64 0, i64 1
  %103 = load i8, i8* %102, align 1
  %104 = sext i8 %103 to i32
  %105 = icmp eq i32 %101, %104
  br i1 %105, label %106, label %134

106:                                              ; preds = %95
  %107 = load i32, i32* %9, align 4
  %108 = sub nsw i32 %107, 1
  %109 = sext i32 %108 to i64
  %110 = getelementptr inbounds [20 x i8], [20 x i8]* %5, i64 0, i64 %109
  %111 = load i8, i8* %110, align 1
  %112 = sext i8 %111 to i32
  %113 = getelementptr inbounds [3 x i8], [3 x i8]* %4, i64 0, i64 2
  %114 = load i8, i8* %113, align 1
  %115 = sext i8 %114 to i32
  %116 = icmp eq i32 %112, %115
  br i1 %116, label %117, label %134

117:                                              ; preds = %106
  store i32 0, i32* %8, align 4
  br label %118

118:                                              ; preds = %130, %117
  %119 = load i32, i32* %8, align 4
  %120 = load i32, i32* %9, align 4
  %121 = sub nsw i32 %120, 3
  %122 = icmp slt i32 %119, %121
  br i1 %122, label %123, label %133

123:                                              ; preds = %118
  %124 = load i32, i32* %8, align 4
  %125 = sext i32 %124 to i64
  %126 = getelementptr inbounds [20 x i8], [20 x i8]* %5, i64 0, i64 %125
  %127 = load i8, i8* %126, align 1
  %128 = sext i8 %127 to i32
  %129 = call i32 (i8*, ...) @printf(i8* getelementptr inbounds ([3 x i8], [3 x i8]* @.str.2, i64 0, i64 0), i32 %128)
  br label %130

130:                                              ; preds = %123
  %131 = load i32, i32* %8, align 4
  %132 = add nsw i32 %131, 1
  store i32 %132, i32* %8, align 4
  br label %118

133:                                              ; preds = %118
  br label %134

134:                                              ; preds = %133, %106, %95, %84
  %135 = call i32 (i8*, ...) @printf(i8* getelementptr inbounds ([2 x i8], [2 x i8]* @.str.3, i64 0, i64 0))
  br label %136

136:                                              ; preds = %134
  %137 = load i32, i32* %7, align 4
  %138 = add nsw i32 %137, 1
  store i32 %138, i32* %7, align 4
  br label %14

139:                                              ; preds = %14
  ret i32 0
}

; Function Attrs: argmemonly nounwind willreturn
declare void @llvm.memcpy.p0i8.p0i8.i64(i8* noalias nocapture writeonly, i8* noalias nocapture readonly, i64, i1 immarg) #1

declare dso_local i32 @__isoc99_scanf(i8*, ...) #2

; Function Attrs: nounwind readonly
declare dso_local i64 @strlen(i8*) #3

declare dso_local i32 @printf(i8*, ...) #2


!llvm.module.flags = !{!0}
!llvm.ident = !{!1}

!0 = !{i32 1, !"wchar_size", i32 4}
!1 = !{!"clang version 10.0.0-4ubuntu1 "}
