; ModuleID = 'source-C-CXX/56/1475.c'
source_filename = "source-C-CXX/56/1475.c"
target datalayout = "e-m:e-p270:32:32-p271:32:32-p272:64:64-i64:64-f80:128-n8:16:32:64-S128"
target triple = "x86_64-pc-linux-gnu"

@.str = private unnamed_addr constant [3 x i8] c"%d\00", align 1
@.str.1 = private unnamed_addr constant [3 x i8] c"%s\00", align 1

; Function Attrs: nofree nounwind sspstrong uwtable
define dso_local i32 @main() local_unnamed_addr #0 {
  %1 = alloca [20 x i8], align 16
  %2 = alloca i32, align 4
  %3 = getelementptr inbounds [20 x i8], [20 x i8]* %1, i64 0, i64 0
  call void @llvm.lifetime.start.p0i8(i64 20, i8* nonnull %3) #5
  %4 = bitcast i32* %2 to i8*
  call void @llvm.lifetime.start.p0i8(i64 4, i8* nonnull %4) #5
  %5 = call i32 (i8*, ...) @__isoc99_scanf(i8* getelementptr inbounds ([3 x i8], [3 x i8]* @.str, i64 0, i64 0), i32* nonnull %2)
  %6 = load i32, i32* %2, align 4, !tbaa !5
  %7 = icmp sgt i32 %6, 0
  br i1 %7, label %8, label %78

8:                                                ; preds = %0, %73
  %9 = phi i32 [ %75, %73 ], [ 0, %0 ]
  %10 = call i32 (i8*, ...) @__isoc99_scanf(i8* getelementptr inbounds ([3 x i8], [3 x i8]* @.str.1, i64 0, i64 0), i8* nonnull %3)
  %11 = call i64 @strlen(i8* noundef nonnull %3) #6
  %12 = trunc i64 %11 to i32
  %13 = add i32 %12, -2
  %14 = sext i32 %13 to i64
  %15 = getelementptr inbounds [20 x i8], [20 x i8]* %1, i64 0, i64 %14
  %16 = load i8, i8* %15, align 1, !tbaa !9
  switch i8 %16, label %45 [
    i8 101, label %17
    i8 108, label %26
  ]

17:                                               ; preds = %8
  %18 = shl i64 %11, 32
  %19 = add i64 %18, -4294967296
  %20 = ashr exact i64 %19, 32
  %21 = getelementptr inbounds [20 x i8], [20 x i8]* %1, i64 0, i64 %20
  %22 = load i8, i8* %21, align 1, !tbaa !9
  %23 = icmp eq i8 %22, 114
  %24 = icmp sgt i32 %12, 2
  %25 = select i1 %23, i1 %24, i1 false
  br i1 %25, label %35, label %45

26:                                               ; preds = %8
  %27 = shl i64 %11, 32
  %28 = add i64 %27, -4294967296
  %29 = ashr exact i64 %28, 32
  %30 = getelementptr inbounds [20 x i8], [20 x i8]* %1, i64 0, i64 %29
  %31 = load i8, i8* %30, align 1, !tbaa !9
  %32 = icmp eq i8 %31, 121
  %33 = icmp sgt i32 %12, 2
  %34 = select i1 %32, i1 %33, i1 false
  br i1 %34, label %35, label %45

35:                                               ; preds = %26, %17
  %36 = zext i32 %13 to i64
  br label %37

37:                                               ; preds = %35, %37
  %38 = phi i64 [ 0, %35 ], [ %43, %37 ]
  %39 = getelementptr inbounds [20 x i8], [20 x i8]* %1, i64 0, i64 %38
  %40 = load i8, i8* %39, align 1, !tbaa !9
  %41 = sext i8 %40 to i32
  %42 = call i32 @putchar(i32 %41)
  %43 = add nuw nsw i64 %38, 1
  %44 = icmp eq i64 %43, %36
  br i1 %44, label %45, label %37, !llvm.loop !10

45:                                               ; preds = %37, %8, %17, %26
  %46 = add i32 %12, -3
  %47 = sext i32 %46 to i64
  %48 = getelementptr inbounds [20 x i8], [20 x i8]* %1, i64 0, i64 %47
  %49 = load i8, i8* %48, align 1, !tbaa !9
  %50 = icmp eq i8 %49, 105
  br i1 %50, label %51, label %73

51:                                               ; preds = %45
  %52 = load i8, i8* %15, align 1, !tbaa !9
  %53 = icmp eq i8 %52, 110
  br i1 %53, label %54, label %73

54:                                               ; preds = %51
  %55 = shl i64 %11, 32
  %56 = add i64 %55, -4294967296
  %57 = ashr exact i64 %56, 32
  %58 = getelementptr inbounds [20 x i8], [20 x i8]* %1, i64 0, i64 %57
  %59 = load i8, i8* %58, align 1, !tbaa !9
  %60 = icmp eq i8 %59, 103
  %61 = icmp sgt i32 %12, 3
  %62 = select i1 %60, i1 %61, i1 false
  br i1 %62, label %63, label %73

63:                                               ; preds = %54
  %64 = zext i32 %46 to i64
  br label %65

65:                                               ; preds = %63, %65
  %66 = phi i64 [ 0, %63 ], [ %71, %65 ]
  %67 = getelementptr inbounds [20 x i8], [20 x i8]* %1, i64 0, i64 %66
  %68 = load i8, i8* %67, align 1, !tbaa !9
  %69 = sext i8 %68 to i32
  %70 = call i32 @putchar(i32 %69)
  %71 = add nuw nsw i64 %66, 1
  %72 = icmp eq i64 %71, %64
  br i1 %72, label %73, label %65, !llvm.loop !12

73:                                               ; preds = %65, %54, %51, %45
  %74 = call i32 @putchar(i32 10)
  %75 = add nuw nsw i32 %9, 1
  %76 = load i32, i32* %2, align 4, !tbaa !5
  %77 = icmp slt i32 %75, %76
  br i1 %77, label %8, label %78, !llvm.loop !13

78:                                               ; preds = %73, %0
  call void @llvm.lifetime.end.p0i8(i64 4, i8* nonnull %4) #5
  call void @llvm.lifetime.end.p0i8(i64 20, i8* nonnull %3) #5
  ret i32 0
}

; Function Attrs: argmemonly mustprogress nofree nosync nounwind willreturn
declare void @llvm.lifetime.start.p0i8(i64 immarg, i8* nocapture) #1

; Function Attrs: nofree nounwind
declare noundef i32 @__isoc99_scanf(i8* nocapture noundef readonly, ...) local_unnamed_addr #2

; Function Attrs: argmemonly mustprogress nofree nounwind readonly willreturn
declare i64 @strlen(i8* nocapture) local_unnamed_addr #3

; Function Attrs: argmemonly mustprogress nofree nosync nounwind willreturn
declare void @llvm.lifetime.end.p0i8(i64 immarg, i8* nocapture) #1

; Function Attrs: nofree nounwind
declare noundef i32 @putchar(i32 noundef) local_unnamed_addr #4


!llvm.module.flags = !{!0, !1, !2, !3}
!llvm.ident = !{!4}

!0 = !{i32 1, !"wchar_size", i32 4}
!1 = !{i32 7, !"PIC Level", i32 2}
!2 = !{i32 7, !"PIE Level", i32 2}
!3 = !{i32 7, !"uwtable", i32 1}
!4 = !{!"clang version 13.0.0"}
!5 = !{!6, !6, i64 0}
!6 = !{!"int", !7, i64 0}
!7 = !{!"omnipotent char", !8, i64 0}
!8 = !{!"Simple C/C++ TBAA"}
!9 = !{!7, !7, i64 0}
!10 = distinct !{!10, !11}
!11 = !{!"llvm.loop.mustprogress"}
!12 = distinct !{!12, !11}
!13 = distinct !{!13, !11}
